; Function Attrs: nounwind uwtable
define ptr @l_UInt8_reduceBoolPred____x40_Lean_Meta_Tactic_Simp_BuiltinSimprocs_UInt___hyg_7759_(ptr noundef %0, ptr noundef %1, ptr noundef %2, ptr noundef %3, ptr readnone captures(none) %4, ptr readnone captures(none) %5, ptr readnone captures(none) %6, ptr noundef %7, ptr noundef %8, ptr noundef %9, ptr noundef %10, ptr noundef %11) local_unnamed_addr #0 {
  %13 = tail call zeroext i8 @l_Lean_Expr_isAppOfArity(ptr noundef %3, ptr noundef %0, ptr noundef %1) #5
  %14 = icmp eq i8 %13, 0
  br i1 %14, label %15, label %68

15:                                               ; preds = %12
  %16 = ptrtoint ptr %10 to i64
  %17 = and i64 %16, 1
  %.not = icmp eq i64 %17, 0
  br i1 %.not, label %18, label %lean_dec.exit29

18:                                               ; preds = %15
  %19 = load i32, ptr %10, align 4, !tbaa !8
  %20 = icmp sgt i32 %19, 1
  br i1 %20, label %21, label %23, !prof !11

21:                                               ; preds = %18
  %22 = add nsw i32 %19, -1
  store i32 %22, ptr %10, align 4, !tbaa !8
  br label %lean_dec.exit29

23:                                               ; preds = %18
  %.not.i = icmp eq i32 %19, 0
  br i1 %.not.i, label %lean_dec.exit29, label %24

24:                                               ; preds = %23
  tail call void @lean_dec_ref_cold(ptr noundef nonnull %10) #5
  br label %lean_dec.exit29

lean_dec.exit29:                                  ; preds = %24, %23, %21, %15
  %25 = ptrtoint ptr %9 to i64
  %26 = and i64 %25, 1
  %.not38 = icmp eq i64 %26, 0
  br i1 %.not38, label %27, label %lean_dec.exit28

27:                                               ; preds = %lean_dec.exit29
  %28 = load i32, ptr %9, align 4, !tbaa !8
  %29 = icmp sgt i32 %28, 1
  br i1 %29, label %30, label %32, !prof !11

30:                                               ; preds = %27
  %31 = add nsw i32 %28, -1
  store i32 %31, ptr %9, align 4, !tbaa !8
  br label %lean_dec.exit28

32:                                               ; preds = %27
  %.not.i30 = icmp eq i32 %28, 0
  br i1 %.not.i30, label %lean_dec.exit28, label %33

33:                                               ; preds = %32
  tail call void @lean_dec_ref_cold(ptr noundef nonnull %9) #5
  br label %lean_dec.exit28

lean_dec.exit28:                                  ; preds = %33, %32, %30, %lean_dec.exit29
  %34 = ptrtoint ptr %8 to i64
  %35 = and i64 %34, 1
  %.not39 = icmp eq i64 %35, 0
  br i1 %.not39, label %36, label %lean_dec.exit27

36:                                               ; preds = %lean_dec.exit28
  %37 = load i32, ptr %8, align 4, !tbaa !8
  %38 = icmp sgt i32 %37, 1
  br i1 %38, label %39, label %41, !prof !11

39:                                               ; preds = %36
  %40 = add nsw i32 %37, -1
  store i32 %40, ptr %8, align 4, !tbaa !8
  br label %lean_dec.exit27

41:                                               ; preds = %36
  %.not.i32 = icmp eq i32 %37, 0
  br i1 %.not.i32, label %lean_dec.exit27, label %42

42:                                               ; preds = %41
  tail call void @lean_dec_ref_cold(ptr noundef nonnull %8) #5
  br label %lean_dec.exit27

lean_dec.exit27:                                  ; preds = %42, %41, %39, %lean_dec.exit28
  %43 = ptrtoint ptr %7 to i64
  %44 = and i64 %43, 1
  %.not40 = icmp eq i64 %44, 0
  br i1 %.not40, label %45, label %lean_dec.exit26

45:                                               ; preds = %lean_dec.exit27
  %46 = load i32, ptr %7, align 4, !tbaa !8
  %47 = icmp sgt i32 %46, 1
  br i1 %47, label %48, label %50, !prof !11

48:                                               ; preds = %45
  %49 = add nsw i32 %46, -1
  store i32 %49, ptr %7, align 4, !tbaa !8
  br label %lean_dec.exit26

50:                                               ; preds = %45
  %.not.i34 = icmp eq i32 %46, 0
  br i1 %.not.i34, label %lean_dec.exit26, label %51

51:                                               ; preds = %50
  tail call void @lean_dec_ref_cold(ptr noundef nonnull %7) #5
  br label %lean_dec.exit26

lean_dec.exit26:                                  ; preds = %51, %50, %48, %lean_dec.exit27
  %52 = ptrtoint ptr %2 to i64
  %53 = and i64 %52, 1
  %.not41 = icmp eq i64 %53, 0
  br i1 %.not41, label %54, label %lean_dec.exit

54:                                               ; preds = %lean_dec.exit26
  %55 = load i32, ptr %2, align 4, !tbaa !8
  %56 = icmp sgt i32 %55, 1
  br i1 %56, label %57, label %59, !prof !11

57:                                               ; preds = %54
  %58 = add nsw i32 %55, -1
  store i32 %58, ptr %2, align 4, !tbaa !8
  br label %lean_dec.exit

59:                                               ; preds = %54
  %.not.i36 = icmp eq i32 %55, 0
  br i1 %.not.i36, label %lean_dec.exit, label %60

60:                                               ; preds = %59
  tail call void @lean_dec_ref_cold(ptr noundef nonnull %2) #5
  br label %lean_dec.exit

lean_dec.exit:                                    ; preds = %60, %59, %57, %lean_dec.exit26
  %61 = load ptr, ptr @l_UInt8_reduceBin____x40_Lean_Meta_Tactic_Simp_BuiltinSimprocs_UInt___hyg_7759____lambda__1___closed__1, align 8, !tbaa !4
  tail call void @lean_inc_heartbeat() #5
  %62 = tail call noalias ptr @mi_malloc_small(i64 noundef 24) #5
  %63 = icmp eq ptr %62, null
  br i1 %63, label %64, label %lean_alloc_ctor.exit

64:                                               ; preds = %lean_dec.exit
  tail call void @lean_internal_panic_out_of_memory() #6
  unreachable

lean_alloc_ctor.exit:                             ; preds = %lean_dec.exit
  %65 = getelementptr inbounds nuw i8, ptr %62, i64 4
  store i32 1, ptr %62, align 4, !tbaa !8
  store i32 131096, ptr %65, align 4
  %66 = getelementptr inbounds nuw i8, ptr %62, i64 8
  store ptr %61, ptr %66, align 8, !tbaa !4
  %67 = getelementptr inbounds nuw i8, ptr %62, i64 16
  store ptr %11, ptr %67, align 8, !tbaa !4
  br label %70

68:                                               ; preds = %12
  %69 = tail call ptr @l_UInt8_reduceBoolPred____x40_Lean_Meta_Tactic_Simp_BuiltinSimprocs_UInt___hyg_7759____lambda__1(ptr noundef %3, ptr noundef %2, ptr nonnull poison, ptr poison, ptr poison, ptr poison, ptr noundef %7, ptr noundef %8, ptr noundef %9, ptr noundef %10, ptr noundef %11)
  br label %70

70:                                               ; preds = %68, %lean_alloc_ctor.exit
  %.0 = phi ptr [ %62, %lean_alloc_ctor.exit ], [ %69, %68 ]
  ret ptr %.0
}